target datalayout = "e-m:e-p270:32:32-p271:32:32-p272:64:64-i64:64-i128:128-f80:128-n8:16:32:64-S128"
target triple = "x86_64-pc-linux-gnu"

%struct._zend_array = type { %struct._zend_refcounted_h, %union.anon.4, i32, %union.anon.6, i32, i32, i32, i32, i64, ptr }
%struct._zend_refcounted_h = type { i32, %union.anon.3 }
%union.anon.3 = type { i32 }
%union.anon.4 = type { i32 }
%union.anon.6 = type { ptr }
%struct._phar_entry_info = type { i32, i32, i32, i32, i32, i32, %struct._phar_metadata_tracker, ptr, i32, i64, i64, i64, ptr, ptr, i32, ptr, ptr, ptr, i8, i32, i16, i16 }
%struct._phar_metadata_tracker = type { %struct._zval_struct, ptr }
%struct._zval_struct = type { %union._zend_value, %union.anon, %union.anon.2 }
%union._zend_value = type { i64 }
%union.anon = type { i32 }
%union.anon.2 = type { i32 }
%struct._phar_archive_data = type { ptr, i32, ptr, i32, ptr, i32, [12 x i8], i64, %struct._zend_array, %struct._zend_array, %struct._zend_array, i32, i32, i32, ptr, ptr, i32, i32, i32, ptr, %struct._phar_metadata_tracker, i32, i16 }
%struct._zend_string = type { %struct._zend_refcounted_h, i64, i64, [1 x i8] }

; Function Attrs: inlinehint nounwind uwtable
define internal void @phar_set_inode(ptr noundef %0) #12 {
  %2 = alloca ptr, align 8
  %3 = alloca [4096 x i8], align 16
  %4 = alloca i64, align 8
  %5 = alloca i64, align 8
  %6 = alloca i64, align 8
  store ptr %0, ptr %2, align 8, !tbaa !87
  call void @llvm.lifetime.start.p0(i64 4096, ptr %3) #14
  call void @llvm.lifetime.start.p0(i64 8, ptr %4) #14
  call void @llvm.lifetime.start.p0(i64 8, ptr %5) #14
  call void @llvm.lifetime.start.p0(i64 8, ptr %6) #14
  %7 = load ptr, ptr %2, align 8, !tbaa !87
  %8 = getelementptr inbounds nuw %struct._phar_entry_info, ptr %7, i32 0, i32 7
  %9 = load ptr, ptr %8, align 8, !tbaa !53
  %10 = getelementptr inbounds nuw %struct._zend_string, ptr %9, i32 0, i32 2
  %11 = load i64, ptr %10, align 8, !tbaa !54
  %12 = load ptr, ptr %2, align 8, !tbaa !87
  %13 = getelementptr inbounds nuw %struct._phar_entry_info, ptr %12, i32 0, i32 16
  %14 = load ptr, ptr %13, align 8, !tbaa !37
  %15 = getelementptr inbounds nuw %struct._phar_archive_data, ptr %14, i32 0, i32 1
  %16 = load i32, ptr %15, align 8, !tbaa !34
  %17 = zext i32 %16 to i64
  %18 = add i64 %11, %17
  %19 = icmp ult i64 4096, %18
  br i1 %19, label %20, label %21

20:                                               ; preds = %1
  br label %34

21:                                               ; preds = %1
  %22 = load ptr, ptr %2, align 8, !tbaa !87
  %23 = getelementptr inbounds nuw %struct._phar_entry_info, ptr %22, i32 0, i32 7
  %24 = load ptr, ptr %23, align 8, !tbaa !53
  %25 = getelementptr inbounds nuw %struct._zend_string, ptr %24, i32 0, i32 2
  %26 = load i64, ptr %25, align 8, !tbaa !54
  %27 = load ptr, ptr %2, align 8, !tbaa !87
  %28 = getelementptr inbounds nuw %struct._phar_entry_info, ptr %27, i32 0, i32 16
  %29 = load ptr, ptr %28, align 8, !tbaa !37
  %30 = getelementptr inbounds nuw %struct._phar_archive_data, ptr %29, i32 0, i32 1
  %31 = load i32, ptr %30, align 8, !tbaa !34
  %32 = zext i32 %31 to i64
  %33 = add i64 %26, %32
  br label %34

34:                                               ; preds = %21, %20
  %35 = phi i64 [ 4096, %20 ], [ %33, %21 ]
  store i64 %35, ptr %4, align 8, !tbaa !11
  %36 = load ptr, ptr %2, align 8, !tbaa !87
  %37 = getelementptr inbounds nuw %struct._phar_entry_info, ptr %36, i32 0, i32 16
  %38 = load ptr, ptr %37, align 8, !tbaa !37
  %39 = getelementptr inbounds nuw %struct._phar_archive_data, ptr %38, i32 0, i32 1
  %40 = load i32, ptr %39, align 8, !tbaa !34
  %41 = zext i32 %40 to i64
  %42 = load i64, ptr %4, align 8, !tbaa !11
  %43 = icmp ult i64 %41, %42
  br i1 %43, label %44, label %51

44:                                               ; preds = %34
  %45 = load ptr, ptr %2, align 8, !tbaa !87
  %46 = getelementptr inbounds nuw %struct._phar_entry_info, ptr %45, i32 0, i32 16
  %47 = load ptr, ptr %46, align 8, !tbaa !37
  %48 = getelementptr inbounds nuw %struct._phar_archive_data, ptr %47, i32 0, i32 1
  %49 = load i32, ptr %48, align 8, !tbaa !34
  %50 = zext i32 %49 to i64
  br label %53

51:                                               ; preds = %34
  %52 = load i64, ptr %4, align 8, !tbaa !11
  br label %53

53:                                               ; preds = %51, %44
  %54 = phi i64 [ %50, %44 ], [ %52, %51 ]
  store i64 %54, ptr %5, align 8, !tbaa !11
  %55 = load ptr, ptr %2, align 8, !tbaa !87
  %56 = getelementptr inbounds nuw %struct._phar_entry_info, ptr %55, i32 0, i32 16
  %57 = load ptr, ptr %56, align 8, !tbaa !37
  %58 = getelementptr inbounds nuw %struct._phar_archive_data, ptr %57, i32 0, i32 0
  %59 = load ptr, ptr %58, align 8, !tbaa !29
  %60 = icmp ne ptr %59, null
  br i1 %60, label %61, label %69

61:                                               ; preds = %53
  %62 = getelementptr inbounds [4096 x i8], ptr %3, i64 0, i64 0
  %63 = load ptr, ptr %2, align 8, !tbaa !87
  %64 = getelementptr inbounds nuw %struct._phar_entry_info, ptr %63, i32 0, i32 16
  %65 = load ptr, ptr %64, align 8, !tbaa !37
  %66 = getelementptr inbounds nuw %struct._phar_archive_data, ptr %65, i32 0, i32 0
  %67 = load ptr, ptr %66, align 8, !tbaa !29
  %68 = load i64, ptr %5, align 8, !tbaa !11
  call void @llvm.memcpy.p0.p0.i64(ptr align 16 %62, ptr align 1 %67, i64 %68, i1 false)
  br label %69

69:                                               ; preds = %61, %53
  %70 = load i64, ptr %4, align 8, !tbaa !11
  %71 = load i64, ptr %5, align 8, !tbaa !11
  %72 = sub i64 %70, %71
  %73 = load ptr, ptr %2, align 8, !tbaa !87
  %74 = getelementptr inbounds nuw %struct._phar_entry_info, ptr %73, i32 0, i32 7
  %75 = load ptr, ptr %74, align 8, !tbaa !53
  %76 = getelementptr inbounds nuw %struct._zend_string, ptr %75, i32 0, i32 2
  %77 = load i64, ptr %76, align 8, !tbaa !54
  %78 = icmp ult i64 %72, %77
  br i1 %78, label %79, label %83

79:                                               ; preds = %69
  %80 = load i64, ptr %4, align 8, !tbaa !11
  %81 = load i64, ptr %5, align 8, !tbaa !11
  %82 = sub i64 %80, %81
  br label %89

83:                                               ; preds = %69
  %84 = load ptr, ptr %2, align 8, !tbaa !87
  %85 = getelementptr inbounds nuw %struct._phar_entry_info, ptr %84, i32 0, i32 7
  %86 = load ptr, ptr %85, align 8, !tbaa !53
  %87 = getelementptr inbounds nuw %struct._zend_string, ptr %86, i32 0, i32 2
  %88 = load i64, ptr %87, align 8, !tbaa !54
  br label %89

89:                                               ; preds = %83, %79
  %90 = phi i64 [ %82, %79 ], [ %88, %83 ]
  store i64 %90, ptr %6, align 8, !tbaa !11
  %91 = getelementptr inbounds [4096 x i8], ptr %3, i64 0, i64 0
  %92 = load i64, ptr %5, align 8, !tbaa !11
  %93 = getelementptr inbounds nuw i8, ptr %91, i64 %92
  %94 = load ptr, ptr %2, align 8, !tbaa !87
  %95 = getelementptr inbounds nuw %struct._phar_entry_info, ptr %94, i32 0, i32 7
  %96 = load ptr, ptr %95, align 8, !tbaa !53
  %97 = load i64, ptr %6, align 8, !tbaa !11
  call void @llvm.memcpy.p0.p0.i64(ptr align 1 %93, ptr align 8 %96, i64 %97, i1 false)
  %98 = getelementptr inbounds [4096 x i8], ptr %3, i64 0, i64 0
  %99 = load i64, ptr %4, align 8, !tbaa !11
  %100 = call i64 @zend_hash_func(ptr noundef %98, i64 noundef %99)
  %101 = trunc i64 %100 to i16
  %102 = load ptr, ptr %2, align 8, !tbaa !87
  %103 = getelementptr inbounds nuw %struct._phar_entry_info, ptr %102, i32 0, i32 20
  store i16 %101, ptr %103, align 8, !tbaa !89
  call void @llvm.lifetime.end.p0(i64 8, ptr %6) #14
  call void @llvm.lifetime.end.p0(i64 8, ptr %5) #14
  call void @llvm.lifetime.end.p0(i64 8, ptr %4) #14
  call void @llvm.lifetime.end.p0(i64 4096, ptr %3) #14
  ret void
}