; Function Attrs: inlinehint nounwind uwtable
define internal fastcc void @phar_set_inode(ptr noundef nonnull captures(none) initializes((144, 146)) %0) unnamed_addr #10 {
  %2 = alloca [4096 x i8], align 16
  call void @llvm.lifetime.start.p0(i64 4096, ptr nonnull %2) #16
  %3 = getelementptr inbounds nuw i8, ptr %0, i64 48
  %4 = load ptr, ptr %3, align 8, !tbaa !56
  %5 = getelementptr inbounds nuw i8, ptr %4, i64 16
  %6 = load i64, ptr %5, align 8, !tbaa !55
  %7 = getelementptr inbounds nuw i8, ptr %0, i64 120
  %8 = load ptr, ptr %7, align 8, !tbaa !30
  %9 = getelementptr inbounds nuw i8, ptr %8, i64 8
  %10 = load i32, ptr %9, align 8, !tbaa !27
  %11 = zext i32 %10 to i64
  %12 = add i64 %6, %11
  %spec.select = tail call i64 @llvm.umin.i64(i64 %12, i64 4096)
  %13 = tail call i64 @llvm.umin.i64(i64 %spec.select, i64 %11)
  %14 = load ptr, ptr %8, align 8, !tbaa !21
  %.not = icmp eq ptr %14, null
  br i1 %.not, label %16, label %15

15:                                               ; preds = %1
  call void @llvm.memcpy.p0.p0.i64(ptr nonnull align 16 %2, ptr nonnull align 1 %14, i64 %13, i1 false)
  br label %16

16:                                               ; preds = %15, %1
  %17 = sub nsw i64 %spec.select, %13
  %. = tail call i64 @llvm.umin.i64(i64 %17, i64 %6)
  %18 = getelementptr inbounds nuw i8, ptr %2, i64 %13
  call void @llvm.memcpy.p0.p0.i64(ptr nonnull align 1 %18, ptr nonnull align 8 %4, i64 %., i1 false)
  %19 = call i64 @zend_hash_func(ptr noundef nonnull %2, i64 noundef %spec.select) #16
  %20 = trunc i64 %19 to i16
  %21 = getelementptr inbounds nuw i8, ptr %0, i64 144
  store i16 %20, ptr %21, align 8, !tbaa !68
  call void @llvm.lifetime.end.p0(i64 4096, ptr nonnull %2) #16
  ret void
}